; Function Attrs: mustprogress nofree norecurse nosync nounwind willreturn memory(read, inaccessiblemem: none) uwtable
define dso_local noundef i32 @_ZNK7doctest6String5rfindEcj(ptr noundef nonnull align 8 dereferenceable(24) %0, i8 noundef signext %1, i32 noundef %2) local_unnamed_addr #19 align 2 {
.lr.ph.preheader:
  %3 = getelementptr inbounds nuw i8, ptr %0, i64 23
  %4 = load i8, ptr %3, align 1, !tbaa !38
  %5 = load ptr, ptr %0, align 8
  %6 = icmp slt i8 %4, 0
  %.0.i.i = select i1 %6, ptr %5, ptr %0
  %7 = getelementptr inbounds nuw i8, ptr %0, i64 8
  %8 = load i32, ptr %7, align 8
  %9 = and i8 %4, 31
  %10 = zext nneg i8 %9 to i32
  %11 = sub nsw i32 23, %10
  %.0.i = select i1 %6, i32 %8, i32 %11
  %12 = add i32 %.0.i, -1
  %.sroa.speculated = tail call i32 @llvm.umin.i32(i32 %12, i32 %2)
  %13 = zext i32 %.sroa.speculated to i64
  %14 = getelementptr inbounds nuw i8, ptr %.0.i.i, i64 %13
  br label %.lr.ph

.lr.ph:                                           ; preds = %.lr.ph.preheader, %16
  %.020 = phi ptr [ %17, %16 ], [ %14, %.lr.ph.preheader ]
  %15 = load i8, ptr %.020, align 1, !tbaa !38
  %.not13 = icmp eq i8 %15, %1
  br i1 %.not13, label %.critedge, label %16

16:                                               ; preds = %.lr.ph
  %17 = getelementptr inbounds i8, ptr %.020, i64 -1
  %.not = icmp ult ptr %17, %.0.i.i
  br i1 %.not, label %.critedge14, label %.lr.ph, !llvm.loop !62

.critedge:                                        ; preds = %.lr.ph
  %18 = ptrtoint ptr %.020 to i64
  %19 = ptrtoint ptr %.0.i.i to i64
  %20 = sub i64 %18, %19
  %21 = trunc i64 %20 to i32
  br label %.critedge14

.critedge14:                                      ; preds = %16, %.critedge
  %.011 = phi i32 [ %21, %.critedge ], [ -1, %16 ]
  ret i32 %.011
}